target datalayout = "e-m:e-p270:32:32-p271:32:32-p272:64:64-i64:64-i128:128-f80:128-n8:16:32:64-S128"
target triple = "x86_64-pc-linux-gnu"

%struct.stack_st = type { i64, ptr, i64, i64, ptr }

; Function Attrs: nounwind uwtable
define hidden i64 @sk_insert(ptr noundef %0, ptr noundef %1, i64 noundef %2) #0 {
  %4 = alloca i64, align 8
  %5 = alloca ptr, align 8
  %6 = alloca ptr, align 8
  %7 = alloca i64, align 8
  %8 = alloca i64, align 8
  %9 = alloca i64, align 8
  %10 = alloca ptr, align 8
  %11 = alloca i32, align 4
  store ptr %0, ptr %5, align 8, !tbaa !10
  store ptr %1, ptr %6, align 8, !tbaa !6
  store i64 %2, ptr %7, align 8, !tbaa !19
  %12 = load ptr, ptr %5, align 8, !tbaa !10
  %13 = icmp eq ptr %12, null
  br i1 %13, label %14, label %15

14:                                               ; preds = %3
  store i64 0, ptr %4, align 8
  br label %128

15:                                               ; preds = %3
  %16 = load ptr, ptr %5, align 8, !tbaa !10
  %17 = getelementptr inbounds nuw %struct.stack_st, ptr %16, i32 0, i32 3
  %18 = load i64, ptr %17, align 8, !tbaa !16
  %19 = load ptr, ptr %5, align 8, !tbaa !10
  %20 = getelementptr inbounds nuw %struct.stack_st, ptr %19, i32 0, i32 0
  %21 = load i64, ptr %20, align 8, !tbaa !17
  %22 = add i64 %21, 1
  %23 = icmp ule i64 %18, %22
  br i1 %23, label %24, label %79

24:                                               ; preds = %15
  call void @llvm.lifetime.start.p0(i64 8, ptr %8) #9
  %25 = load ptr, ptr %5, align 8, !tbaa !10
  %26 = getelementptr inbounds nuw %struct.stack_st, ptr %25, i32 0, i32 3
  %27 = load i64, ptr %26, align 8, !tbaa !16
  %28 = shl i64 %27, 1
  store i64 %28, ptr %8, align 8, !tbaa !19
  call void @llvm.lifetime.start.p0(i64 8, ptr %9) #9
  %29 = load i64, ptr %8, align 8, !tbaa !19
  %30 = mul i64 %29, 8
  store i64 %30, ptr %9, align 8, !tbaa !19
  call void @llvm.lifetime.start.p0(i64 8, ptr %10) #9
  %31 = load i64, ptr %8, align 8, !tbaa !19
  %32 = load ptr, ptr %5, align 8, !tbaa !10
  %33 = getelementptr inbounds nuw %struct.stack_st, ptr %32, i32 0, i32 3
  %34 = load i64, ptr %33, align 8, !tbaa !16
  %35 = icmp ult i64 %31, %34
  br i1 %35, label %41, label %36

36:                                               ; preds = %24
  %37 = load i64, ptr %9, align 8, !tbaa !19
  %38 = udiv i64 %37, 8
  %39 = load i64, ptr %8, align 8, !tbaa !19
  %40 = icmp ne i64 %38, %39
  br i1 %40, label %41, label %48

41:                                               ; preds = %36, %24
  %42 = load ptr, ptr %5, align 8, !tbaa !10
  %43 = getelementptr inbounds nuw %struct.stack_st, ptr %42, i32 0, i32 3
  %44 = load i64, ptr %43, align 8, !tbaa !16
  %45 = add i64 %44, 1
  store i64 %45, ptr %8, align 8, !tbaa !19
  %46 = load i64, ptr %8, align 8, !tbaa !19
  %47 = mul i64 %46, 8
  store i64 %47, ptr %9, align 8, !tbaa !19
  br label %48

48:                                               ; preds = %41, %36
  %49 = load i64, ptr %8, align 8, !tbaa !19
  %50 = load ptr, ptr %5, align 8, !tbaa !10
  %51 = getelementptr inbounds nuw %struct.stack_st, ptr %50, i32 0, i32 3
  %52 = load i64, ptr %51, align 8, !tbaa !16
  %53 = icmp ult i64 %49, %52
  br i1 %53, label %59, label %54

54:                                               ; preds = %48
  %55 = load i64, ptr %9, align 8, !tbaa !19
  %56 = udiv i64 %55, 8
  %57 = load i64, ptr %8, align 8, !tbaa !19
  %58 = icmp ne i64 %56, %57
  br i1 %58, label %59, label %60

59:                                               ; preds = %54, %48
  store i64 0, ptr %4, align 8
  store i32 1, ptr %11, align 4
  br label %76

60:                                               ; preds = %54
  %61 = load ptr, ptr %5, align 8, !tbaa !10
  %62 = getelementptr inbounds nuw %struct.stack_st, ptr %61, i32 0, i32 1
  %63 = load ptr, ptr %62, align 8, !tbaa !12
  %64 = load i64, ptr %9, align 8, !tbaa !19
  %65 = call ptr @realloc(ptr noundef %63, i64 noundef %64) #11
  store ptr %65, ptr %10, align 8, !tbaa !6
  %66 = load ptr, ptr %10, align 8, !tbaa !6
  %67 = icmp eq ptr %66, null
  br i1 %67, label %68, label %69

68:                                               ; preds = %60
  store i64 0, ptr %4, align 8
  store i32 1, ptr %11, align 4
  br label %76

69:                                               ; preds = %60
  %70 = load ptr, ptr %10, align 8, !tbaa !6
  %71 = load ptr, ptr %5, align 8, !tbaa !10
  %72 = getelementptr inbounds nuw %struct.stack_st, ptr %71, i32 0, i32 1
  store ptr %70, ptr %72, align 8, !tbaa !12
  %73 = load i64, ptr %8, align 8, !tbaa !19
  %74 = load ptr, ptr %5, align 8, !tbaa !10
  %75 = getelementptr inbounds nuw %struct.stack_st, ptr %74, i32 0, i32 3
  store i64 %73, ptr %75, align 8, !tbaa !16
  store i32 0, ptr %11, align 4
  br label %76

76:                                               ; preds = %69, %68, %59
  call void @llvm.lifetime.end.p0(i64 8, ptr %10) #9
  call void @llvm.lifetime.end.p0(i64 8, ptr %9) #9
  call void @llvm.lifetime.end.p0(i64 8, ptr %8) #9
  %77 = load i32, ptr %11, align 4
  switch i32 %77, label %130 [
    i32 0, label %78
    i32 1, label %128
  ]

78:                                               ; preds = %76
  br label %79

79:                                               ; preds = %78, %15
  %80 = load i64, ptr %7, align 8, !tbaa !19
  %81 = load ptr, ptr %5, align 8, !tbaa !10
  %82 = getelementptr inbounds nuw %struct.stack_st, ptr %81, i32 0, i32 0
  %83 = load i64, ptr %82, align 8, !tbaa !17
  %84 = icmp uge i64 %80, %83
  br i1 %84, label %85, label %94

85:                                               ; preds = %79
  %86 = load ptr, ptr %6, align 8, !tbaa !6
  %87 = load ptr, ptr %5, align 8, !tbaa !10
  %88 = getelementptr inbounds nuw %struct.stack_st, ptr %87, i32 0, i32 1
  %89 = load ptr, ptr %88, align 8, !tbaa !12
  %90 = load ptr, ptr %5, align 8, !tbaa !10
  %91 = getelementptr inbounds nuw %struct.stack_st, ptr %90, i32 0, i32 0
  %92 = load i64, ptr %91, align 8, !tbaa !17
  %93 = getelementptr inbounds nuw ptr, ptr %89, i64 %92
  store ptr %86, ptr %93, align 8, !tbaa !6
  br label %118

94:                                               ; preds = %79
  %95 = load ptr, ptr %5, align 8, !tbaa !10
  %96 = getelementptr inbounds nuw %struct.stack_st, ptr %95, i32 0, i32 1
  %97 = load ptr, ptr %96, align 8, !tbaa !12
  %98 = load i64, ptr %7, align 8, !tbaa !19
  %99 = add i64 %98, 1
  %100 = getelementptr inbounds nuw ptr, ptr %97, i64 %99
  %101 = load ptr, ptr %5, align 8, !tbaa !10
  %102 = getelementptr inbounds nuw %struct.stack_st, ptr %101, i32 0, i32 1
  %103 = load ptr, ptr %102, align 8, !tbaa !12
  %104 = load i64, ptr %7, align 8, !tbaa !19
  %105 = getelementptr inbounds nuw ptr, ptr %103, i64 %104
  %106 = load ptr, ptr %5, align 8, !tbaa !10
  %107 = getelementptr inbounds nuw %struct.stack_st, ptr %106, i32 0, i32 0
  %108 = load i64, ptr %107, align 8, !tbaa !17
  %109 = load i64, ptr %7, align 8, !tbaa !19
  %110 = sub i64 %108, %109
  %111 = mul i64 8, %110
  call void @llvm.memmove.p0.p0.i64(ptr align 8 %100, ptr align 8 %105, i64 %111, i1 false)
  %112 = load ptr, ptr %6, align 8, !tbaa !6
  %113 = load ptr, ptr %5, align 8, !tbaa !10
  %114 = getelementptr inbounds nuw %struct.stack_st, ptr %113, i32 0, i32 1
  %115 = load ptr, ptr %114, align 8, !tbaa !12
  %116 = load i64, ptr %7, align 8, !tbaa !19
  %117 = getelementptr inbounds nuw ptr, ptr %115, i64 %116
  store ptr %112, ptr %117, align 8, !tbaa !6
  br label %118

118:                                              ; preds = %94, %85
  %119 = load ptr, ptr %5, align 8, !tbaa !10
  %120 = getelementptr inbounds nuw %struct.stack_st, ptr %119, i32 0, i32 0
  %121 = load i64, ptr %120, align 8, !tbaa !17
  %122 = add i64 %121, 1
  store i64 %122, ptr %120, align 8, !tbaa !17
  %123 = load ptr, ptr %5, align 8, !tbaa !10
  %124 = getelementptr inbounds nuw %struct.stack_st, ptr %123, i32 0, i32 2
  store i64 0, ptr %124, align 8, !tbaa !18
  %125 = load ptr, ptr %5, align 8, !tbaa !10
  %126 = getelementptr inbounds nuw %struct.stack_st, ptr %125, i32 0, i32 0
  %127 = load i64, ptr %126, align 8, !tbaa !17
  store i64 %127, ptr %4, align 8
  br label %128

128:                                              ; preds = %118, %76, %14
  %129 = load i64, ptr %4, align 8
  ret i64 %129

130:                                              ; preds = %76
  unreachable
}

; Function Attrs: nounwind uwtable
define hidden i64 @sk_push(ptr noundef %0, ptr noundef %1) #0 {
  %3 = alloca ptr, align 8
  %4 = alloca ptr, align 8
  store ptr %0, ptr %3, align 8, !tbaa !10
  store ptr %1, ptr %4, align 8, !tbaa !6
  %5 = load ptr, ptr %3, align 8, !tbaa !10
  %6 = load ptr, ptr %4, align 8, !tbaa !6
  %7 = load ptr, ptr %3, align 8, !tbaa !10
  %8 = getelementptr inbounds nuw %struct.stack_st, ptr %7, i32 0, i32 0
  %9 = load i64, ptr %8, align 8, !tbaa !17
  %10 = call i64 @sk_insert(ptr noundef %5, ptr noundef %6, i64 noundef %9)
  ret i64 %10
}