; Function Attrs: mustprogress nounwind willreturn uwtable
define hidden i64 @sk_push(ptr noundef captures(none) %0, ptr noundef %1) local_unnamed_addr #6 {
  %3 = load i64, ptr %0, align 8, !tbaa !14
  %4 = getelementptr inbounds nuw i8, ptr %0, i64 24
  %5 = load i64, ptr %4, align 8, !tbaa !13
  %6 = add i64 %3, 1
  %.not.i = icmp ugt i64 %5, %6
  br i1 %.not.i, label %.thread, label %9

.thread:                                          ; preds = %2
  %7 = getelementptr inbounds nuw i8, ptr %0, i64 8
  %8 = load ptr, ptr %7, align 8, !tbaa !6
  br label %26

9:                                                ; preds = %2
  %10 = icmp slt i64 %5, 0
  br i1 %10, label %15, label %11

11:                                               ; preds = %9
  %12 = shl nuw i64 %5, 1
  %13 = shl i64 %5, 4
  %14 = lshr exact i64 %13, 3
  %.not49.i = icmp eq i64 %14, %12
  br i1 %.not49.i, label %18, label %15

15:                                               ; preds = %11, %9
  %16 = add i64 %5, 1
  %17 = shl i64 %16, 3
  %.pre55.i = and i64 %16, 2305843009213693951
  br label %18

18:                                               ; preds = %15, %11
  %.pre-phi.i = phi i64 [ %.pre55.i, %15 ], [ %12, %11 ]
  %.042.i = phi i64 [ %16, %15 ], [ %12, %11 ]
  %.041.i = phi i64 [ %17, %15 ], [ %13, %11 ]
  %19 = icmp uge i64 %.042.i, %5
  %.not50.i = icmp eq i64 %.pre-phi.i, %.042.i
  %or.cond.i = and i1 %19, %.not50.i
  br i1 %or.cond.i, label %20, label %sk_insert.exit

20:                                               ; preds = %18
  %21 = getelementptr inbounds nuw i8, ptr %0, i64 8
  %22 = load ptr, ptr %21, align 8, !tbaa !6
  %23 = tail call ptr @realloc(ptr noundef %22, i64 noundef %.041.i) #18
  %24 = icmp eq ptr %23, null
  br i1 %24, label %sk_insert.exit, label %25

25:                                               ; preds = %20
  store ptr %23, ptr %21, align 8, !tbaa !6
  store i64 %.pre-phi.i, ptr %4, align 8, !tbaa !13
  %.pre.i = load i64, ptr %0, align 8, !tbaa !14
  %.not51.i = icmp ult i64 %3, %.pre.i
  br i1 %.not51.i, label %30, label %26

26:                                               ; preds = %.thread, %25
  %27 = phi ptr [ %8, %.thread ], [ %23, %25 ]
  %28 = phi i64 [ %3, %.thread ], [ %.pre.i, %25 ]
  %29 = getelementptr inbounds nuw ptr, ptr %27, i64 %28
  store ptr %1, ptr %29, align 8, !tbaa !16
  br label %35

30:                                               ; preds = %25
  %31 = getelementptr ptr, ptr %23, i64 %3
  %32 = getelementptr i8, ptr %31, i64 8
  %33 = sub nuw i64 %.pre.i, %3
  %34 = shl i64 %33, 3
  tail call void @llvm.memmove.p0.p0.i64(ptr align 8 %32, ptr align 8 %31, i64 %34, i1 false)
  store ptr %1, ptr %31, align 8, !tbaa !16
  br label %35

35:                                               ; preds = %30, %26
  %36 = phi i64 [ %.pre.i, %30 ], [ %28, %26 ]
  %37 = add i64 %36, 1
  store i64 %37, ptr %0, align 8, !tbaa !14
  %38 = getelementptr inbounds nuw i8, ptr %0, i64 16
  store i64 0, ptr %38, align 8, !tbaa !15
  br label %sk_insert.exit

sk_insert.exit:                                   ; preds = %18, %20, %35
  %.040.i = phi i64 [ %37, %35 ], [ 0, %18 ], [ 0, %20 ]
  ret i64 %.040.i
}